target datalayout = "e-m:e-p270:32:32-p271:32:32-p272:64:64-i64:64-i128:128-f80:128-n8:16:32:64-S128"
target triple = "x86_64-pc-linux-gnu"

@.str = private unnamed_addr constant [30 x i8] c"../openssl/crypto/ct/ct_b64.c\00", align 1
@__func__.CTLOG_new_from_base64_ex = private unnamed_addr constant [25 x i8] c"CTLOG_new_from_base64_ex\00", align 1

; Function Attrs: nounwind uwtable
define i32 @CTLOG_new_from_base64_ex(ptr noundef %0, ptr noundef %1, ptr noundef %2, ptr noundef %3, ptr noundef %4) #0 {
  %6 = alloca i32, align 4
  %7 = alloca ptr, align 8
  %8 = alloca ptr, align 8
  %9 = alloca ptr, align 8
  %10 = alloca ptr, align 8
  %11 = alloca ptr, align 8
  %12 = alloca ptr, align 8
  %13 = alloca i32, align 4
  %14 = alloca ptr, align 8
  %15 = alloca ptr, align 8
  %16 = alloca i32, align 4
  store ptr %0, ptr %7, align 8, !tbaa !19
  store ptr %1, ptr %8, align 8, !tbaa !6
  store ptr %2, ptr %9, align 8, !tbaa !6
  store ptr %3, ptr %10, align 8, !tbaa !21
  store ptr %4, ptr %11, align 8, !tbaa !6
  call void @llvm.lifetime.start.p0(i64 8, ptr %12) #4
  store ptr null, ptr %12, align 8, !tbaa !6
  call void @llvm.lifetime.start.p0(i64 4, ptr %13) #4
  call void @llvm.lifetime.start.p0(i64 8, ptr %14) #4
  call void @llvm.lifetime.start.p0(i64 8, ptr %15) #4
  store ptr null, ptr %15, align 8, !tbaa !23
  %17 = load ptr, ptr %7, align 8, !tbaa !19
  %18 = icmp eq ptr %17, null
  br i1 %18, label %19, label %20

19:                                               ; preds = %5
  call void @ERR_new()
  call void @ERR_set_debug(ptr noundef @.str, i32 noundef 143, ptr noundef @__func__.CTLOG_new_from_base64_ex)
  call void (i32, i32, ptr, ...) @ERR_set_error(i32 noundef 50, i32 noundef 524550, ptr noundef null)
  store i32 0, ptr %6, align 4
  store i32 1, ptr %16, align 4
  br label %50

20:                                               ; preds = %5
  %21 = load ptr, ptr %8, align 8, !tbaa !6
  %22 = call i32 @ct_base64_decode(ptr noundef %21, ptr noundef %12)
  store i32 %22, ptr %13, align 4, !tbaa !9
  %23 = load i32, ptr %13, align 4, !tbaa !9
  %24 = icmp slt i32 %23, 0
  br i1 %24, label %25, label %26

25:                                               ; preds = %20
  call void @ERR_new()
  call void @ERR_set_debug(ptr noundef @.str, i32 noundef 149, ptr noundef @__func__.CTLOG_new_from_base64_ex)
  call void (i32, i32, ptr, ...) @ERR_set_error(i32 noundef 50, i32 noundef 110, ptr noundef null)
  store i32 0, ptr %6, align 4
  store i32 1, ptr %16, align 4
  br label %50

26:                                               ; preds = %20
  %27 = load ptr, ptr %12, align 8, !tbaa !6
  store ptr %27, ptr %14, align 8, !tbaa !6
  %28 = load i32, ptr %13, align 4, !tbaa !9
  %29 = sext i32 %28 to i64
  %30 = load ptr, ptr %10, align 8, !tbaa !21
  %31 = load ptr, ptr %11, align 8, !tbaa !6
  %32 = call ptr @d2i_PUBKEY_ex(ptr noundef null, ptr noundef %14, i64 noundef %29, ptr noundef %30, ptr noundef %31)
  store ptr %32, ptr %15, align 8, !tbaa !23
  %33 = load ptr, ptr %12, align 8, !tbaa !6
  call void @CRYPTO_free(ptr noundef %33, ptr noundef @.str, i32 noundef 155)
  %34 = load ptr, ptr %15, align 8, !tbaa !23
  %35 = icmp eq ptr %34, null
  br i1 %35, label %36, label %37

36:                                               ; preds = %26
  call void @ERR_new()
  call void @ERR_set_debug(ptr noundef @.str, i32 noundef 157, ptr noundef @__func__.CTLOG_new_from_base64_ex)
  call void (i32, i32, ptr, ...) @ERR_set_error(i32 noundef 50, i32 noundef 110, ptr noundef null)
  store i32 0, ptr %6, align 4
  store i32 1, ptr %16, align 4
  br label %50

37:                                               ; preds = %26
  %38 = load ptr, ptr %15, align 8, !tbaa !23
  %39 = load ptr, ptr %9, align 8, !tbaa !6
  %40 = load ptr, ptr %10, align 8, !tbaa !21
  %41 = load ptr, ptr %11, align 8, !tbaa !6
  %42 = call ptr @CTLOG_new_ex(ptr noundef %38, ptr noundef %39, ptr noundef %40, ptr noundef %41)
  %43 = load ptr, ptr %7, align 8, !tbaa !19
  store ptr %42, ptr %43, align 8, !tbaa !25
  %44 = load ptr, ptr %7, align 8, !tbaa !19
  %45 = load ptr, ptr %44, align 8, !tbaa !25
  %46 = icmp eq ptr %45, null
  br i1 %46, label %47, label %49

47:                                               ; preds = %37
  %48 = load ptr, ptr %15, align 8, !tbaa !23
  call void @EVP_PKEY_free(ptr noundef %48)
  store i32 0, ptr %6, align 4
  store i32 1, ptr %16, align 4
  br label %50

49:                                               ; preds = %37
  store i32 1, ptr %6, align 4
  store i32 1, ptr %16, align 4
  br label %50

50:                                               ; preds = %49, %47, %36, %25, %19
  call void @llvm.lifetime.end.p0(i64 8, ptr %15) #4
  call void @llvm.lifetime.end.p0(i64 8, ptr %14) #4
  call void @llvm.lifetime.end.p0(i64 4, ptr %13) #4
  call void @llvm.lifetime.end.p0(i64 8, ptr %12) #4
  %51 = load i32, ptr %6, align 4
  ret i32 %51
}