; Function Attrs: nounwind uwtable
define range(i32 0, 2) i32 @CTLOG_new_from_base64_ex(ptr noundef writeonly captures(address_is_null) %0, ptr noundef %1, ptr noundef %2, ptr noundef %3, ptr noundef %4) local_unnamed_addr #0 {
  %6 = alloca ptr, align 8
  %7 = alloca ptr, align 8
  call void @llvm.lifetime.start.p0(i64 8, ptr nonnull %6) #4
  store ptr null, ptr %6, align 8, !tbaa !3
  call void @llvm.lifetime.start.p0(i64 8, ptr nonnull %7) #4
  %8 = icmp eq ptr %0, null
  br i1 %8, label %9, label %10

9:                                                ; preds = %5
  tail call void @ERR_new() #4
  tail call void @ERR_set_debug(ptr noundef nonnull @.str, i32 noundef 143, ptr noundef nonnull @__func__.CTLOG_new_from_base64_ex) #4
  tail call void (i32, i32, ptr, ...) @ERR_set_error(i32 noundef 50, i32 noundef 524550, ptr noundef null) #4
  br label %24

10:                                               ; preds = %5
  %11 = call fastcc i32 @ct_base64_decode(ptr noundef %1, ptr noundef %6)
  %12 = icmp slt i32 %11, 0
  br i1 %12, label %13, label %14

13:                                               ; preds = %10
  tail call void @ERR_new() #4
  tail call void @ERR_set_debug(ptr noundef nonnull @.str, i32 noundef 149, ptr noundef nonnull @__func__.CTLOG_new_from_base64_ex) #4
  tail call void (i32, i32, ptr, ...) @ERR_set_error(i32 noundef 50, i32 noundef 110, ptr noundef null) #4
  br label %24

14:                                               ; preds = %10
  %15 = load ptr, ptr %6, align 8, !tbaa !3
  store ptr %15, ptr %7, align 8, !tbaa !3
  %16 = zext nneg i32 %11 to i64
  %17 = call ptr @d2i_PUBKEY_ex(ptr noundef null, ptr noundef nonnull %7, i64 noundef %16, ptr noundef %3, ptr noundef %4) #4
  call void @CRYPTO_free(ptr noundef %15, ptr noundef nonnull @.str, i32 noundef 155) #4
  %18 = icmp eq ptr %17, null
  br i1 %18, label %19, label %20

19:                                               ; preds = %14
  call void @ERR_new() #4
  call void @ERR_set_debug(ptr noundef nonnull @.str, i32 noundef 157, ptr noundef nonnull @__func__.CTLOG_new_from_base64_ex) #4
  call void (i32, i32, ptr, ...) @ERR_set_error(i32 noundef 50, i32 noundef 110, ptr noundef null) #4
  br label %24

20:                                               ; preds = %14
  %21 = call ptr @CTLOG_new_ex(ptr noundef nonnull %17, ptr noundef %2, ptr noundef %3, ptr noundef %4) #4
  store ptr %21, ptr %0, align 8, !tbaa !11
  %22 = icmp eq ptr %21, null
  br i1 %22, label %23, label %24

23:                                               ; preds = %20
  call void @EVP_PKEY_free(ptr noundef nonnull %17) #4
  br label %24

24:                                               ; preds = %20, %23, %19, %13, %9
  %.0 = phi i32 [ 0, %9 ], [ 0, %13 ], [ 0, %19 ], [ 0, %23 ], [ 1, %20 ]
  call void @llvm.lifetime.end.p0(i64 8, ptr nonnull %7) #4
  call void @llvm.lifetime.end.p0(i64 8, ptr nonnull %6) #4
  ret i32 %.0
}